; Function Attrs: nounwind sspstrong uwtable
define dso_local void @qmp_block_job_change(ptr noundef %0, ptr noundef %1) local_unnamed_addr #0 {
  %3 = load atomic i64, ptr @qemu_mutex_lock_func monotonic, align 8
  %4 = inttoptr i64 %3 to ptr
  tail call void %4(ptr noundef nonnull @job_mutex, ptr noundef nonnull @.str.183, i32 noundef 56) #14
  %5 = load ptr, ptr %0, align 8
  %.not.i = icmp eq ptr %5, null
  br i1 %.not.i, label %6, label %7

6:                                                ; preds = %2
  tail call void @__assert_fail(ptr noundef nonnull @.str.247, ptr noundef nonnull @.str.1, i32 noundef 3137, ptr noundef nonnull @__PRETTY_FUNCTION__.find_block_job_locked) #15
  unreachable

7:                                                ; preds = %2
  %8 = tail call ptr @block_job_get_locked(ptr noundef nonnull %5) #14
  %.not9.i = icmp eq ptr %8, null
  br i1 %.not9.i, label %find_block_job_locked.exit.thread, label %find_block_job_locked.exit

find_block_job_locked.exit.thread:                ; preds = %7
  tail call void (ptr, ptr, i32, ptr, i32, ptr, ...) @error_set_internal(ptr noundef %1, ptr noundef nonnull @.str.1, i32 noundef 3143, ptr noundef nonnull @__func__.find_block_job_locked, i32 noundef 2, ptr noundef nonnull @.str.248, ptr noundef nonnull %5) #14
  br label %glib_autoptr_cleanup_QemuLockable.exit

find_block_job_locked.exit:                       ; preds = %7
  tail call void @block_job_change_locked(ptr noundef nonnull %8, ptr noundef nonnull %0, ptr noundef %1) #14
  br label %glib_autoptr_cleanup_QemuLockable.exit

glib_autoptr_cleanup_QemuLockable.exit:           ; preds = %find_block_job_locked.exit.thread, %find_block_job_locked.exit
  tail call void @qemu_mutex_unlock_impl(ptr noundef nonnull @job_mutex, ptr noundef nonnull @.str.183, i32 noundef 56) #14
  ret void
}